; Function Attrs: mustprogress nounwind uwtable
define internal fastcc void @_ZSt8_DestroyIPN12_GLOBAL__N_115cmQtAutoMocUicT7KeyExpTES2_EvT_S4_RSaIT0_E(ptr noundef %0, ptr noundef readnone %1) unnamed_addr #5 {
  %.not4.i.i = icmp eq ptr %0, %1
  br i1 %.not4.i.i, label %_ZSt8_DestroyIPN12_GLOBAL__N_115cmQtAutoMocUicT7KeyExpTEEvT_S4_.exit, label %.lr.ph.i.i

.lr.ph.i.i:                                       ; preds = %2, %_ZSt8_DestroyIN12_GLOBAL__N_115cmQtAutoMocUicT7KeyExpTEEvPT_.exit.i.i
  %.05.i.i = phi ptr [ %7, %_ZSt8_DestroyIN12_GLOBAL__N_115cmQtAutoMocUicT7KeyExpTEEvPT_.exit.i.i ], [ %0, %2 ]
  %3 = getelementptr inbounds i8, ptr %.05.i.i, i64 576
  %4 = load ptr, ptr %3, align 8
  %5 = icmp eq ptr %4, null
  br i1 %5, label %_ZSt8_DestroyIN12_GLOBAL__N_115cmQtAutoMocUicT7KeyExpTEEvPT_.exit.i.i, label %6

6:                                                ; preds = %.lr.ph.i.i
  tail call void @_ZdaPv(ptr noundef nonnull %4) #24
  br label %_ZSt8_DestroyIN12_GLOBAL__N_115cmQtAutoMocUicT7KeyExpTEEvPT_.exit.i.i

_ZSt8_DestroyIN12_GLOBAL__N_115cmQtAutoMocUicT7KeyExpTEEvPT_.exit.i.i: ; preds = %6, %.lr.ph.i.i
  tail call void @_ZNSt7__cxx1112basic_stringIcSt11char_traitsIcESaIcEED1Ev(ptr noundef nonnull align 8 dereferenceable(32) %.05.i.i) #23
  %7 = getelementptr inbounds i8, ptr %.05.i.i, i64 592
  %.not.i.i = icmp eq ptr %7, %1
  br i1 %.not.i.i, label %_ZSt8_DestroyIPN12_GLOBAL__N_115cmQtAutoMocUicT7KeyExpTEEvT_S4_.exit, label %.lr.ph.i.i, !llvm.loop !8

_ZSt8_DestroyIPN12_GLOBAL__N_115cmQtAutoMocUicT7KeyExpTEEvT_S4_.exit: ; preds = %_ZSt8_DestroyIN12_GLOBAL__N_115cmQtAutoMocUicT7KeyExpTEEvPT_.exit.i.i, %2
  ret void
}